; Function Attrs: mustprogress nounwind uwtable
define dso_local noundef zeroext i1 @_ZN4llvm29inferNonMandatoryLibFuncAttrsEPNS_6ModuleENS_9StringRefERKNS_17TargetLibraryInfoE(ptr noundef nonnull %0, ptr %1, i64 %2, ptr nocapture noundef nonnull readonly align 8 dereferenceable(72) %3) local_unnamed_addr #0 {
  %5 = tail call noundef ptr @_ZNK4llvm6Module11getFunctionENS_9StringRefE(ptr noundef nonnull align 8 dereferenceable(857) %0, ptr %1, i64 %2) #7
  %.not = icmp eq ptr %5, null
  br i1 %.not, label %8, label %6

6:                                                ; preds = %4
  %7 = tail call noundef zeroext i1 @_ZN4llvm29inferNonMandatoryLibFuncAttrsERNS_8FunctionERKNS_17TargetLibraryInfoE(ptr noundef nonnull align 8 dereferenceable(136) %5, ptr noundef nonnull align 8 dereferenceable(72) %3)
  br label %8

8:                                                ; preds = %4, %6
  %.0 = phi i1 [ %7, %6 ], [ false, %4 ]
  ret i1 %.0
}